((lp1
(S'<class node.KeyboardInput at 0x249a8990>'
(l(lp2
(S'key'
p3
I673771848
tp4
a(d(I186
I39
I43
I43
ttp5
a(S'<class node.VariableSetter at 0x249a8810>'
(lp6
(S'in'
p7
I673774728
tp8
a(l(dp9
S'name'
p10
S'key'
p11
s(I183
I111
I43
I43
ttp12
a(S'<class node.MouseInput at 0x249a87b0>'
(l(lp13
(S'Mouse X'
p14
I673785976
tp15
a(S'Mouse Y'
p16
I673786656
tp17
a(S'Left Click'
p18
I673787376
tp19
a(S'Right Click'
p20
I673792328
tp21
a(d(I324
I38
I100
I43
ttp22
a(S'<class node.VariableSetter at 0x249a8810>'
(lp23
(g7
I673795288
tp24
a(l(dp25
g10
S'mouseX'
p26
s(I321
I122
F65
I43
ttp27
a(S'<class node.VariableSetter at 0x249a8810>'
(lp28
(g7
I673806496
tp29
a(l(dp30
g10
S'mouseY'
p31
s(I386
I122
F65
I43
ttp32
a(S'<class node.VariableSetter at 0x249a8810>'
(lp33
(g7
I673817704
tp34
a(l(dp35
g10
S'leftClick'
p36
s(I451
I122
F64
I43
ttp37
a(S'<class node.VariableSetter at 0x249a8810>'
(lp38
(g7
I673820584
tp39
a(l(dp40
g10
S'rightClick'
p41
s(I514
I122
F72
I43
ttp42
a(S'<class node.VariableGetter at 0x249a87e0>'
(l(lp43
(S'out'
p44
I673827776
tp45
a(dp46
g10
S'leftClick'
p47
s(I185
I204
F64
I43
ttp48
a(S'<class node.VariableGetter at 0x249a87e0>'
(l(lp49
(g44
I673834888
tp50
a(dp51
g10
S'mouseX'
p52
s(I262
I226
F65
I43
ttp53
a(S'<class node.VariableGetter at 0x249a87e0>'
(l(lp54
(g44
I673846416
tp55
a(dp56
g10
S'leftClick'
p57
s(I392
I203
F64
I43
ttp58
a(S'<class node.VariableGetter at 0x249a87e0>'
(l(lp59
(g44
I673853848
tp60
a(dp61
g10
S'mouseY'
p62
s(I468
I226
F65
I43
ttp63
a(S'<class node.VariableGetter at 0x249a87e0>'
(l(lp64
(g44
I673857128
tp65
a(dp66
g10
S'rightClick'
p67
s(I183
I469
F72
I43
ttp68
a(S'<class node.VariableGetter at 0x249a87e0>'
(l(lp69
(g44
I673868656
tp70
a(dp71
g10
S'mouseY'
p72
s(I265
I490
F65
I43
ttp73
a(S'<class node.LogicGate at 0x249a8900>'
(lp74
(S'control'
p75
I673880264
tp76
a(S'input 1'
p77
I673880744
tp78
a(S'input 2'
p79
I673881224
tp80
a(lp81
(S'output'
p82
I673881704
tp83
a(d(I182
I311
I75
I43
ttp84
a(S'<class node.LogicGate at 0x249a8900>'
(lp85
(g75
I673892432
tp86
a(g77
I673892912
tp87
a(g79
I673893392
tp88
a(lp89
(g82
I673893872
tp90
a(d(I389
I309
I75
I43
ttp91
a(S'<class node.VariableSetter at 0x249a8810>'
(lp92
(g7
I673900904
tp93
a(l(dp94
g10
S'imageCenterX'
p95
s(I179
I381
F100
I43
ttp96
a(S'<class node.VariableSetter at 0x249a8810>'
(lp97
(g7
I673912112
tp98
a(l(dp99
g10
S'imageCenterY'
p100
s(I386
I379
F100
I43
ttp101
a(S'<class node.LogicGate at 0x249a8900>'
(lp102
(g75
I673919304
tp103
a(g77
I673919784
tp104
a(g79
I673920264
tp105
a(lp106
(g82
I673920744
tp107
a(d(I180
I576
I75
I43
ttp108
a(S'<class node.ExpressionBuilder at 0x249a8780>'
(lp109
(S'a'
I673931832
tp110
a(S'b'
I673932312
tp111
a(S'c'
I673932792
tp112
a(S'd'
I673933272
tp113
a(lp114
(S'result'
p115
I673933752
tp116
a(dp117
S'expression'
p118
S'a/100.0'
p119
s(I177
I651
I100
I43
ttp120
a(S'<class node.VariableSetter at 0x249a8810>'
(lp121
(g7
I673941144
tp122
a(l(dp123
g10
S'imageScale'
p124
s(I174
I729
F82
I43
ttp125
a(S'<class node.VariableGetter at 0x249a87e0>'
(l(lp126
(g44
I673952352
tp127
a(dp128
g10
S'imageCenterX'
p129
s(I418
I559
F100
I43
ttp130
a(S'<class node.VariableGetter at 0x249a87e0>'
(l(lp131
(g44
I673955632
tp132
a(dp133
g10
S'imageCenterY'
p134
s(I517
I559
F100
I43
ttp135
a(S'<class node.VariableGetter at 0x249a87e0>'
(l(lp136
(g44
I673963064
tp137
a(dp138
g10
S'imageScale'
p139
s(I615
I559
F82
I43
ttp140
a(S'<class node.VariableGetter at 0x249a87e0>'
(l(lp141
(g44
I673974592
tp142
a(dp143
g10
S'key'
p144
s(I751
I161
I43
I43
ttp145
a(S'<class node.Parameter at 0x249a8360>'
(lp146
(S'value'
p147
I673982104
tp148
a(lp149
(g147
I673982584
tp150
a(dp151
g147
F97
s(I794
I161
I43
I43
ttp152
a(S'<class node.Conditional at 0x249a8390>'
(lp153
(S'value1'
p154
I673993872
tp155
a(S'value2'
p156
I673994352
tp157
a(lp158
(g147
I673994832
tp159
a(dp160
S'relation'
p161
S'=='
p162
s(I757
I238
I50
I43
ttp163
a(S'<class node.Arduino at 0x249a8750>'
(lp164
(S'pin2'
p165
I674002784
tp166
a(S'pin3'
p167
I674004104
tp168
a(S'pin4'
p169
I691114432
tp170
a(S'pin5'
p171
I691115712
tp172
a(S'pin6'
p173
I691116992
tp174
a(S'pin7'
p175
I691126520
tp176
a(S'pin8'
p177
I691127800
tp178
a(S'pin9'
p179
I691129080
tp180
a(S'pin10'
p181
I691134512
tp182
a(S'pin11'
p183
I691135792
tp184
a(S'pin12'
p185
I691136192
tp186
a(S'pin13'
p187
I691137472
tp188
a(lp189
(S'pin2'
p190
I674003344
tp191
a(S'pin3'
p192
I674004624
tp193
a(S'pin4'
p194
I691114952
tp195
a(S'pin5'
p196
I691116232
tp197
a(S'pin6'
p198
I691117512
tp199
a(S'pin7'
p200
I691127040
tp201
a(S'pin8'
p202
I691128320
tp203
a(S'pin9'
p204
I691129600
tp205
a(S'pin10'
p206
I691135032
tp207
a(S'pin11'
p208
I691115392
tp209
a(S'pin12'
p210
I691136712
tp211
a(S'pin13'
p212
I691137992
tp213
a(S'a0'
p214
I691147000
tp215
a(S'a1'
p216
I691147800
tp217
a(S'a2'
p218
I691148600
tp219
a(S'a3'
p220
I691149400
tp221
a(S'a4'
p222
I691150200
tp223
a(S'a5'
p224
I691155152
tp225
a(dp226
S'outs'
p227
(lp228
I12
aI13
asS'ins'
p229
(lp230
s(I911
I38
I450
I43
ttp231
a(S'<class node.Parameter at 0x249a8360>'
(lp232
(g147
I691163384
tp233
a(lp234
(g147
I691163864
tp235
a(dp236
g147
F1000
s(I1125
I97
I43
I43
ttp237
a(S'<class node.Parameter at 0x249a8360>'
(lp238
(g147
I691167184
tp239
a(lp240
(g147
I691175992
tp241
a(dp242
g147
F1000
s(I1273
I96
I43
I43
ttp243
a(S'<class node.Conditional at 0x249a8390>'
(lp244
(g154
I691179352
tp245
a(g156
I691183984
tp246
a(lp247
(g147
I691155632
tp248
a(dp249
g161
S'<'
s(I1170
I165
I50
I43
ttp250
a(S'<class node.Conditional at 0x249a8390>'
(lp251
(g154
I691187424
tp252
a(g156
I691196152
tp253
a(lp254
(g147
I691196632
tp255
a(dp256
g161
S'<'
s(I1229
I184
I50
I43
ttp257
a(S'<class node.LogicButton at 0x249a8840>'
(lp258
(g7
I691204624
tp259
a(lp260
(g44
I691205104
tp261
a(d(I1167
I268
I43
I43
ttp262
a(S'<class node.LogicButton at 0x249a8840>'
(lp263
(g7
I691207984
tp264
a(lp265
(g44
I691216712
tp266
a(d(I1274
I267
I43
I43
ttp267
a(S'<class node.ExpressionBuilder at 0x249a8780>'
(lp268
(S'a'
I691219512
tp269
a(S'b'
I691219992
tp270
a(S'c'
I691224624
tp271
a(S'd'
I691225104
tp272
a(lp273
(g115
I691225584
tp274
a(dp275
g118
S'a+b'
p276
s(I1200
I388
I100
I43
ttp277
a(S'<class node.LogicToggle at 0x249a8870>'
(lp278
(g7
I691228624
tp279
a(lp280
(g44
I691233336
tp281
a(d(I1197
I485
I43
I43
ttp282
a(S'<class node.SimpleCamera at 0x249a8240>'
(l(lp283
(S'image'
p284
I691236176
tp285
a(dp286
S'mirrorImage'
p287
I0
sS'indexvalue'
p288
F0
s(I689
I38
I43
I43
ttp289
a(S'<class node.ImageMask at 0x249a88d0>'
(lp290
(g284
I691248744
tp291
a(lp292
(g284
I691257472
tp293
a(dp294
S'filename'
p295
S'/Users/ericwelch/Desktop/ARIEL_docs/Prototypes/Gravity_Well/gravity_well_1/circle_mask.png'
p296
s(I686
I136
I43
I43
ttp297
a(S'<class node.BackgroundDifferencing at 0x249a8330>'
(lp298
(S'image data'
p299
I691260752
tp300
a(S'trigger'
p301
I691261232
tp302
a(lp303
(g284
I691269960
tp304
a(d(I683
I308
I50
I43
ttp305
a(S'<class node.Parameter at 0x249a8360>'
(lp306
(g147
I691273000
tp307
a(lp308
(g147
I691273480
tp309
a(dp310
g147
F20
s(I795
I323
I43
I43
ttp311
a(S'<class node.BlobTracking at 0x249a82a0>'
(lp312
(S'image data'
p313
I691280552
tp314
a(S'min blob size'
p315
I691281032
tp316
a(S'max blob size'
p317
I691281512
tp318
a(S'threshold'
p319
I691290240
tp320
a(lp321
(S'blobs'
p322
I691290720
tp323
a(S'blob geometry'
p324
I691291480
tp325
a(g284
I691292280
tp326
a(S'video sync'
p327
I691293080
tp328
a(d(I680
I401
I100
I43
ttp329
a(S'<class node.Image at 0x249a83f0>'
(lp330
(S'index'
p331
I691300432
tp332
a(S'x position'
p333
I691300912
tp334
a(S'y position'
p335
I691301392
tp336
a(S'z position'
p337
I691301872
tp338
a(S'matrix'
p339
I691302352
tp340
a(S'rotation'
p341
I691311080
tp342
a(S'scale'
p343
I691311560
tp344
a(S'transparency'
p345
I691312040
tp346
a(S'to draw or not to draw'
p347
I691312520
tp348
a(S'mask'
p349
I691313000
tp350
a(S'image data'
p351
I691313480
tp352
a(lp353
(S'image width'
p354
I691313960
tp355
a(S'image height'
p356
I691318872
tp357
a(dp358
S'anchor'
p359
I1
sS'autoAlign'
p360
I0
sg295
S''
s(I482
I649
I275
I43
ttp361
a(S'<class node.BlobFilter at 0x249a82d0>'
(lp362
(g322
I691328584
tp363
a(S'id'
p364
I691291160
tp365
a(lp366
(S'x'
I691329064
tp367
a(S'y'
I691329824
tp368
a(S'width'
p369
I691330624
tp370
a(S'height'
p371
I691339672
tp372
a(d(I941
I485
I100
I43
ttp373
a(S'<class node.VariableGetter at 0x249a87e0>'
(l(lp374
(g44
I691342712
tp375
a(dp376
g10
S'imageCenterX'
p377
s(I820
I587
F100
I43
ttp378
a(S'<class node.VariableGetter at 0x249a87e0>'
(l(lp379
(g44
I691354240
tp380
a(dp381
g10
S'imageCenterY'
p382
s(I920
I587
F100
I43
ttp383
a(S'<class node.VariableGetter at 0x249a87e0>'
(l(lp384
(g44
I691365768
tp385
a(dp386
g10
S'imageScale'
p387
s(I1023
I587
F82
I43
ttp388
a(S'<class node.Splitter at 0x249a8570>'
(lp389
(S'data'
p390
I691373240
tp391
a(lp392
(S'data1'
p393
I691373640
tp394
a(S'data2'
p395
I691374480
tp396
a(S'data3'
p397
I691375280
tp398
a(S'data4'
p399
I691376080
tp400
a(d(I1020
I660
I100
I43
ttp401
a(S'<class node.ExpressionBuilder at 0x249a8780>'
(lp402
(S'a'
I889276136
tp403
a(S'b'
I889276616
tp404
a(S'c'
I889277096
tp405
a(S'd'
I889277576
tp406
a(lp407
(g115
I889278056
tp408
a(dp409
g118
S'(b-(320*c))+(a*c)'
p410
s(I855
I763
I100
I43
ttp411
a(S'<class node.ExpressionBuilder at 0x249a8780>'
(lp412
(S'a'
I889285648
tp413
a(S'b'
I889286128
tp414
a(S'c'
I889286608
tp415
a(S'd'
I889295336
tp416
a(lp417
(g115
I889295816
tp418
a(dp419
g118
S'(b-(240*c))+(a*c)'
p420
s(I994
I762
I100
I43
ttp421
a(S'<class node.DataCollector at 0x249a8480>'
(lp422
(S'x'
I889303448
tp423
a(S'y'
I889303928
tp424
a(g301
I889304408
tp425
a(S'erase all'
p426
I889304888
tp427
a(S'video sync'
p428
I889305368
tp429
a(lp430
(S'vector list'
p431
I889305848
tp432
a(d(I899
I869
I125
I43
ttp433
a(S'<class node.CurveDisplay at 0x249a84b0>'
(lp434
(S'vector list'
p435
I889313040
tp436
a(l(dp437
S'color'
p438
S'FFFFFF'
p439
s(I896
I976
I43
I43
ttp440
a(S'<class node.VariableGetter at 0x249a87e0>'
(l(lp441
(g44
I893274392
tp442
a(dp443
g10
S'leftClick'
p444
s(I697
I559
F64
I43
ttp445
a(lp446
(I673893872
I673912112
tp447
a(I691342712
I889276616
tp448
a(I691163864
I691183984
tp449
a(I691273480
I691290240
tp450
a(I691236176
I691248744
tp451
a(I673853848
I673893392
tp452
a(I673952352
I691300912
tp453
a(I691290720
I691328584
tp454
a(I691175992
I691196152
tp455
a(I691205104
I691219512
tp456
a(I691329064
I889276136
tp457
a(I673881704
I673900904
tp458
a(I691354240
I889286128
tp459
a(I673994832
I691261232
tp460
a(I673771848
I673774728
tp461
a(I691373640
I889277096
tp462
a(I673787376
I673817704
tp463
a(I691329824
I889285648
tp464
a(I691225584
I691228624
tp465
a(I691269960
I691280552
tp466
a(I673785976
I673795288
tp467
a(I691374480
I889286608
tp468
a(I691155632
I691204624
tp469
a(I691147800
I691187424
tp470
a(I673857128
I673919304
tp471
a(I673933752
I673941144
tp472
a(I889295816
I889303928
tp473
a(I691196632
I691207984
tp474
a(I889278056
I889303448
tp475
a(I673846416
I673892432
tp476
a(I889305848
I889313040
tp477
a(I691365768
I691373240
tp478
a(I691292280
I691313480
tp479
a(I673974592
I673993872
tp480
a(I673955632
I691301392
tp481
a(I673827776
I673880264
tp482
a(I673834888
I673881224
tp483
a(I691216712
I691219992
tp484
a(I673868656
I673920264
tp485
a(I893274392
I691312520
tp486
a(I673792328
I673820584
tp487
a(I691147000
I691179352
tp488
a(I673786656
I673806496
tp489
a(I691257472
I691260752
tp490
a(I673963064
I691311560
tp491
a(I691233336
I889304408
tp492
a(I673920744
I673931832
tp493
a(I673982584
I673994352
tp494
atp495
.