((lp1
(S'<class node.Arduino at 0x249a8630>'
(lp2
(S'pin2'
p3
I614239648
tp4
a(S'pin3'
p5
I614249136
tp6
a(S'pin4'
p7
I614250296
tp8
a(S'pin5'
p9
I614251456
tp10
a(S'pin6'
p11
I614256768
tp12
a(S'pin7'
p13
I614257928
tp14
a(S'pin8'
p15
I614259088
tp16
a(S'pin9'
p17
I614260248
tp18
a(S'pin10'
p19
I614269656
tp20
a(S'pin11'
p21
I614270816
tp22
a(S'pin12'
p23
I614271976
tp24
a(S'pin13'
p25
I670609576
tp26
a(lp27
(S'pin2'
p28
I614240208
tp29
a(S'pin3'
p30
I614249616
tp31
a(S'pin4'
p32
I614250776
tp33
a(S'pin5'
p34
I614251936
tp35
a(S'pin6'
p36
I614257248
tp37
a(S'pin7'
p38
I614258408
tp39
a(S'pin8'
p40
I614259568
tp41
a(S'pin9'
p42
I614268976
tp43
a(S'pin10'
p44
I614270136
tp45
a(S'pin11'
p46
I614271296
tp47
a(S'pin12'
p48
I614272456
tp49
a(S'pin13'
p50
I670610056
tp51
a(S'a0'
p52
I670610736
tp53
a(S'a1'
p54
I670611416
tp55
a(S'a2'
p56
I670612096
tp57
a(S'a3'
p58
I670612776
tp59
a(S'a4'
p60
I670613456
tp61
a(S'a5'
p62
I670613216
tp63
a(dp64
S'outs'
p65
(lp66
I12
aI13
asS'ins'
p67
(lp68
s(I300
I170
I450
I43
ttp69
a(S'<class node.Parameter at 0x249a8240>'
(lp70
(S'value'
p71
I670776816
tp72
a(lp73
(g71
I670746624
tp74
a(dp75
g71
F254
s(I361
I264
I43
I43
ttp76
a(S'<class node.Parameter at 0x249a8240>'
(lp77
(g71
I670809064
tp78
a(lp79
(g71
I670807864
tp80
a(dp81
g71
F844
s(I407
I264
I43
I43
ttp82
a(S'<class node.Parameter at 0x249a8240>'
(lp83
(g71
I670634712
tp84
a(lp85
(g71
I670635392
tp86
a(dp87
g71
F0
s(I453
I264
I43
I43
ttp88
a(S'<class node.Parameter at 0x249a8240>'
(lp89
(g71
I670635512
tp90
a(lp91
(g71
I698423576
tp92
a(dp93
g71
F1280
s(I499
I264
I43
I43
ttp94
a(S'<class node.Parameter at 0x249a8240>'
(lp95
(g71
I670806864
tp96
a(lp97
(g71
I670807784
tp98
a(dp99
g71
F563
s(I641
I262
I43
I43
ttp100
a(S'<class node.Parameter at 0x249a8240>'
(lp101
(g71
I698411768
tp102
a(lp103
(g71
I698409088
tp104
a(dp105
g71
F855
s(I687
I262
I43
I43
ttp106
a(S'<class node.Parameter at 0x249a8240>'
(lp107
(g71
I698412088
tp108
a(lp109
(g71
I698409688
tp110
a(dp111
g71
F0
s(I733
I262
I43
I43
ttp112
a(S'<class node.Parameter at 0x249a8240>'
(lp113
(g71
I670773936
tp114
a(lp115
(g71
I670773696
tp116
a(dp117
g71
F768
s(I779
I262
I43
I43
ttp118
a(S'<class Math_Scale.MathScale at 0x24994570>'
(lp119
(S'input'
p120
I670822272
tp121
a(S'old minimum'
p122
I670819792
tp123
a(S'old maximum'
p124
I670821632
tp125
a(S'new minimum'
p126
I670821072
tp127
a(S'new maximum'
p128
I670820512
tp129
a(lp130
(S'output'
p131
I670821912
tp132
a(d(I344
I376
I125
I43
ttp133
a(S'<class Math_Scale.MathScale at 0x24994570>'
(lp134
(g120
I698437384
tp135
a(g122
I670749640
tp136
a(g124
I670751480
tp137
a(g126
I670750040
tp138
a(g128
I670751240
tp139
a(lp140
(g131
I670751360
tp141
a(d(I624
I374
I125
I43
ttp142
a(S'<class node.DrawCode at 0x249a8840>'
(lp143
(S'in1'
p144
I698433904
tp145
a(S'in2'
p146
I698434144
tp147
a(l(dp148
S'expression'
p149
S'glRectf(in1, 0, in1 + 2, 768)'
p150
s(I475
I543
I50
I43
ttp151
a(S'<class node.DrawCode at 0x249a8840>'
(lp152
(g144
I670761728
tp153
a(g146
I670764368
tp154
a(l(dp155
g149
S'glRectf(0, in1, 1280, in1 + 2)'
p156
s(I536
I543
I50
I43
ttp157
a(lp158
(I670821912
I698433904
tp159
a(I670611416
I698437384
tp160
a(I698409088
I670751480
tp161
a(I670751360
I670761728
tp162
a(I670635392
I670821072
tp163
a(I670773696
I670751240
tp164
a(I670807864
I670821632
tp165
a(I670807784
I670749640
tp166
a(I698409688
I670750040
tp167
a(I670746624
I670819792
tp168
a(I670610736
I670822272
tp169
a(I698423576
I670820512
tp170
atp171
.