((lp1
(S'<class node.Arduino at 0x249a8630>'
(lp2
(S'pin2'
p3
I614239648
tp4
a(S'pin3'
p5
I614249136
tp6
a(S'pin4'
p7
I614250296
tp8
a(S'pin5'
p9
I614251456
tp10
a(S'pin6'
p11
I614256768
tp12
a(S'pin7'
p13
I614257928
tp14
a(S'pin8'
p15
I614259088
tp16
a(S'pin9'
p17
I614260248
tp18
a(S'pin10'
p19
I614269656
tp20
a(S'pin11'
p21
I614270816
tp22
a(S'pin12'
p23
I614271976
tp24
a(S'pin13'
p25
I670609576
tp26
a(lp27
(S'pin2'
p28
I614240208
tp29
a(S'pin3'
p30
I614249616
tp31
a(S'pin4'
p32
I614250776
tp33
a(S'pin5'
p34
I614251936
tp35
a(S'pin6'
p36
I614257248
tp37
a(S'pin7'
p38
I614258408
tp39
a(S'pin8'
p40
I614259568
tp41
a(S'pin9'
p42
I614268976
tp43
a(S'pin10'
p44
I614270136
tp45
a(S'pin11'
p46
I614271296
tp47
a(S'pin12'
p48
I614272456
tp49
a(S'pin13'
p50
I670610056
tp51
a(S'a0'
p52
I670610736
tp53
a(S'a1'
p54
I670611416
tp55
a(S'a2'
p56
I670612096
tp57
a(S'a3'
p58
I670612776
tp59
a(S'a4'
p60
I670613456
tp61
a(S'a5'
p62
I670613216
tp63
a(dp64
S'outs'
p65
(lp66
I12
aI13
asS'ins'
p67
(lp68
s(I364
I128
I450
I43
ttp69
a(S'<class node.Parameter at 0x249a8240>'
(lp70
(S'value'
p71
I670776816
tp72
a(lp73
(g71
I670746624
tp74
a(dp75
g71
F254
s(I425
I222
I43
I43
ttp76
a(S'<class node.Parameter at 0x249a8240>'
(lp77
(g71
I670809064
tp78
a(lp79
(g71
I670807864
tp80
a(dp81
g71
F844
s(I471
I222
I43
I43
ttp82
a(S'<class node.Parameter at 0x249a8240>'
(lp83
(g71
I670634712
tp84
a(lp85
(g71
I670635392
tp86
a(dp87
g71
F0
s(I517
I222
I43
I43
ttp88
a(S'<class node.Parameter at 0x249a8240>'
(lp89
(g71
I670635512
tp90
a(lp91
(g71
I698423576
tp92
a(dp93
g71
F1280
s(I563
I222
I43
I43
ttp94
a(S'<class node.Parameter at 0x249a8240>'
(lp95
(g71
I670806864
tp96
a(lp97
(g71
I670807784
tp98
a(dp99
g71
F563
s(I705
I220
I43
I43
ttp100
a(S'<class node.Parameter at 0x249a8240>'
(lp101
(g71
I698411768
tp102
a(lp103
(g71
I698409088
tp104
a(dp105
g71
F855
s(I751
I220
I43
I43
ttp106
a(S'<class node.Parameter at 0x249a8240>'
(lp107
(g71
I698412088
tp108
a(lp109
(g71
I698409688
tp110
a(dp111
g71
F0
s(I797
I220
I43
I43
ttp112
a(S'<class node.Parameter at 0x249a8240>'
(lp113
(g71
I670773936
tp114
a(lp115
(g71
I670773696
tp116
a(dp117
g71
F768
s(I843
I220
I43
I43
ttp118
a(S'<class Math_Scale.MathScale at 0x24994570>'
(lp119
(S'input'
p120
I670822272
tp121
a(S'old minimum'
p122
I670819792
tp123
a(S'old maximum'
p124
I670821632
tp125
a(S'new minimum'
p126
I670821072
tp127
a(S'new maximum'
p128
I670820512
tp129
a(lp130
(S'output'
p131
I670821912
tp132
a(d(I408
I334
I125
I43
ttp133
a(S'<class Math_Scale.MathScale at 0x24994570>'
(lp134
(g120
I698437384
tp135
a(g122
I670749640
tp136
a(g124
I670751480
tp137
a(g126
I670750040
tp138
a(g128
I670751240
tp139
a(lp140
(g131
I670751360
tp141
a(d(I688
I332
I125
I43
ttp142
a(S'<class node.DataCollector at 0x249a8360>'
(lp143
(S'x'
I698406712
tp144
a(S'y'
I698406792
tp145
a(S'trigger'
p146
I698406992
tp147
a(S'erase all'
p148
I698407192
tp149
a(S'video sync'
p150
I698407392
tp151
a(lp152
(S'vector list'
p153
I698407592
tp154
a(d(I593
I522
I125
I43
ttp155
a(S'<class node.MouseInput at 0x249a8690>'
(l(lp156
(S'Mouse X'
p157
I698466512
tp158
a(S'Mouse Y'
p159
I698468632
tp160
a(S'Left Click'
p161
I698466912
tp162
a(S'Right Click'
p163
I698468832
tp164
a(d(I700
I419
I100
I43
ttp165
a(S'<class node.CurveDisplay at 0x249a8390>'
(lp166
(S'vector list'
p167
I698389008
tp168
a(l(dp169
S'color'
p170
S'FFFFFF'
p171
s(I635
I624
I43
I43
ttp172
a(lp173
(I670611416
I698437384
tp174
a(I698407592
I698389008
tp175
a(I698409088
I670751480
tp176
a(I670821912
I698406712
tp177
a(I670635392
I670821072
tp178
a(I670773696
I670751240
tp179
a(I670807864
I670821632
tp180
a(I670807784
I670749640
tp181
a(I670751360
I698406792
tp182
a(I698466912
I698406992
tp183
a(I698409688
I670750040
tp184
a(I670746624
I670819792
tp185
a(I670610736
I670822272
tp186
a(I698423576
I670820512
tp187
atp188
.